target datalayout = "e-m:e-p270:32:32-p271:32:32-p272:64:64-i64:64-i128:128-f80:128-n8:16:32:64-S128"
target triple = "x86_64-pc-linux-gnu"

@hf_cigi3_hat_hot_extended_response_hat_hot_id = internal global i32 0, align 4
@hf_cigi3_hat_hot_extended_response_valid = internal global i32 0, align 4
@hf_cigi3_hat_hot_extended_response_hat = internal global i32 0, align 4
@hf_cigi3_hat_hot_extended_response_hot = internal global i32 0, align 4
@hf_cigi3_hat_hot_extended_response_material_code = internal global i32 0, align 4
@hf_cigi3_hat_hot_extended_response_normal_vector_azimuth = internal global i32 0, align 4
@hf_cigi3_hat_hot_extended_response_normal_vector_elevation = internal global i32 0, align 4
@hf_cigi3_2_hat_hot_extended_response_host_frame_number_lsn = internal global i32 0, align 4
@hf_cigi4_hat_hot_extended_response_flags = internal global i32 0, align 4
@ett_cigi4_hat_hot_extended_response_flags = internal global i32 0, align 4
@cigi_byte_order = internal global i32 0, align 4

; Function Attrs: null_pointer_is_valid sspstrong uwtable
define internal i32 @cigi4_add_hat_hot_extended_response(ptr noundef %0, ptr noundef %1, ptr noundef %2, ptr noundef %3) #0 {
  %5 = alloca ptr, align 8
  %6 = alloca ptr, align 8
  %7 = alloca ptr, align 8
  %8 = alloca ptr, align 8
  %9 = alloca ptr, align 8
  %10 = alloca ptr, align 8
  %11 = alloca i32, align 4
  store ptr %0, ptr %5, align 8
  store ptr %1, ptr %6, align 8
  store ptr %2, ptr %7, align 8
  store ptr %3, ptr %8, align 8
  call void @llvm.lifetime.start.p0(i64 8, ptr %9) #5
  call void @llvm.lifetime.start.p0(i64 8, ptr %10) #5
  call void @llvm.lifetime.start.p0(i64 4, ptr %11) #5
  store i32 0, ptr %11, align 4
  %12 = load ptr, ptr %7, align 8
  %13 = load i32, ptr @hf_cigi4_hat_hot_extended_response_flags, align 4
  %14 = load ptr, ptr %5, align 8
  %15 = load i32, ptr %11, align 4
  %16 = load i32, ptr @cigi_byte_order, align 4
  %17 = call ptr @proto_tree_add_item(ptr noundef %12, i32 noundef %13, ptr noundef %14, i32 noundef %15, i32 noundef 1, i32 noundef %16)
  store ptr %17, ptr %10, align 8
  %18 = load ptr, ptr %10, align 8
  %19 = load i32, ptr @ett_cigi4_hat_hot_extended_response_flags, align 4
  %20 = call ptr @proto_item_add_subtree(ptr noundef %18, i32 noundef %19)
  store ptr %20, ptr %9, align 8
  %21 = load ptr, ptr %9, align 8
  %22 = load i32, ptr @hf_cigi3_hat_hot_extended_response_valid, align 4
  %23 = load ptr, ptr %5, align 8
  %24 = load i32, ptr %11, align 4
  %25 = load i32, ptr @cigi_byte_order, align 4
  %26 = call ptr @proto_tree_add_item(ptr noundef %21, i32 noundef %22, ptr noundef %23, i32 noundef %24, i32 noundef 1, i32 noundef %25)
  %27 = load ptr, ptr %9, align 8
  %28 = load i32, ptr @hf_cigi3_2_hat_hot_extended_response_host_frame_number_lsn, align 4
  %29 = load ptr, ptr %5, align 8
  %30 = load i32, ptr %11, align 4
  %31 = load i32, ptr @cigi_byte_order, align 4
  %32 = call ptr @proto_tree_add_item(ptr noundef %27, i32 noundef %28, ptr noundef %29, i32 noundef %30, i32 noundef 1, i32 noundef %31)
  %33 = load i32, ptr %11, align 4
  %34 = add i32 %33, 2
  store i32 %34, ptr %11, align 4
  %35 = load ptr, ptr %7, align 8
  %36 = load i32, ptr @hf_cigi3_hat_hot_extended_response_hat_hot_id, align 4
  %37 = load ptr, ptr %5, align 8
  %38 = load i32, ptr %11, align 4
  %39 = load i32, ptr @cigi_byte_order, align 4
  %40 = call ptr @proto_tree_add_item(ptr noundef %35, i32 noundef %36, ptr noundef %37, i32 noundef %38, i32 noundef 2, i32 noundef %39)
  %41 = load i32, ptr %11, align 4
  %42 = add i32 %41, 2
  store i32 %42, ptr %11, align 4
  %43 = load ptr, ptr %7, align 8
  %44 = load i32, ptr @hf_cigi3_hat_hot_extended_response_hat, align 4
  %45 = load ptr, ptr %5, align 8
  %46 = load i32, ptr %11, align 4
  %47 = load i32, ptr @cigi_byte_order, align 4
  %48 = call ptr @proto_tree_add_item(ptr noundef %43, i32 noundef %44, ptr noundef %45, i32 noundef %46, i32 noundef 8, i32 noundef %47)
  %49 = load i32, ptr %11, align 4
  %50 = add i32 %49, 8
  store i32 %50, ptr %11, align 4
  %51 = load ptr, ptr %7, align 8
  %52 = load i32, ptr @hf_cigi3_hat_hot_extended_response_hot, align 4
  %53 = load ptr, ptr %5, align 8
  %54 = load i32, ptr %11, align 4
  %55 = load i32, ptr @cigi_byte_order, align 4
  %56 = call ptr @proto_tree_add_item(ptr noundef %51, i32 noundef %52, ptr noundef %53, i32 noundef %54, i32 noundef 8, i32 noundef %55)
  %57 = load i32, ptr %11, align 4
  %58 = add i32 %57, 8
  store i32 %58, ptr %11, align 4
  %59 = load ptr, ptr %7, align 8
  %60 = load i32, ptr @hf_cigi3_hat_hot_extended_response_material_code, align 4
  %61 = load ptr, ptr %5, align 8
  %62 = load i32, ptr %11, align 4
  %63 = load i32, ptr @cigi_byte_order, align 4
  %64 = call ptr @proto_tree_add_item(ptr noundef %59, i32 noundef %60, ptr noundef %61, i32 noundef %62, i32 noundef 4, i32 noundef %63)
  %65 = load i32, ptr %11, align 4
  %66 = add i32 %65, 4
  store i32 %66, ptr %11, align 4
  %67 = load ptr, ptr %7, align 8
  %68 = load i32, ptr @hf_cigi3_hat_hot_extended_response_normal_vector_azimuth, align 4
  %69 = load ptr, ptr %5, align 8
  %70 = load i32, ptr %11, align 4
  %71 = load i32, ptr @cigi_byte_order, align 4
  %72 = call ptr @proto_tree_add_item(ptr noundef %67, i32 noundef %68, ptr noundef %69, i32 noundef %70, i32 noundef 4, i32 noundef %71)
  %73 = load i32, ptr %11, align 4
  %74 = add i32 %73, 4
  store i32 %74, ptr %11, align 4
  %75 = load ptr, ptr %7, align 8
  %76 = load i32, ptr @hf_cigi3_hat_hot_extended_response_normal_vector_elevation, align 4
  %77 = load ptr, ptr %5, align 8
  %78 = load i32, ptr %11, align 4
  %79 = load i32, ptr @cigi_byte_order, align 4
  %80 = call ptr @proto_tree_add_item(ptr noundef %75, i32 noundef %76, ptr noundef %77, i32 noundef %78, i32 noundef 4, i32 noundef %79)
  %81 = load i32, ptr %11, align 4
  %82 = add i32 %81, 8
  store i32 %82, ptr %11, align 4
  %83 = load i32, ptr %11, align 4
  call void @llvm.lifetime.end.p0(i64 4, ptr %11) #5
  call void @llvm.lifetime.end.p0(i64 8, ptr %10) #5
  call void @llvm.lifetime.end.p0(i64 8, ptr %9) #5
  ret i32 %83
}