; Function Attrs: null_pointer_is_valid sspstrong uwtable
define internal noundef i32 @cigi4_add_hat_hot_extended_response(ptr noundef %0, ptr readnone captures(none) %1, ptr noundef %2, ptr readnone captures(none) %3) #0 {
  %5 = load i32, ptr @hf_cigi4_hat_hot_extended_response_flags, align 4
  %.b42 = load i1, ptr @cigi_byte_order, align 4
  %6 = select i1 %.b42, i32 -2147483648, i32 0
  %7 = tail call ptr @proto_tree_add_item(ptr noundef %2, i32 noundef %5, ptr noundef %0, i32 noundef 0, i32 noundef 1, i32 noundef %6)
  %8 = load i32, ptr @ett_cigi4_hat_hot_extended_response_flags, align 4
  %9 = tail call ptr @proto_item_add_subtree(ptr noundef %7, i32 noundef %8)
  %10 = load i32, ptr @hf_cigi3_hat_hot_extended_response_valid, align 4
  %.b41 = load i1, ptr @cigi_byte_order, align 4
  %11 = select i1 %.b41, i32 -2147483648, i32 0
  %12 = tail call ptr @proto_tree_add_item(ptr noundef %9, i32 noundef %10, ptr noundef %0, i32 noundef 0, i32 noundef 1, i32 noundef %11)
  %13 = load i32, ptr @hf_cigi3_2_hat_hot_extended_response_host_frame_number_lsn, align 4
  %.b40 = load i1, ptr @cigi_byte_order, align 4
  %14 = select i1 %.b40, i32 -2147483648, i32 0
  %15 = tail call ptr @proto_tree_add_item(ptr noundef %9, i32 noundef %13, ptr noundef %0, i32 noundef 0, i32 noundef 1, i32 noundef %14)
  %16 = load i32, ptr @hf_cigi3_hat_hot_extended_response_hat_hot_id, align 4
  %.b39 = load i1, ptr @cigi_byte_order, align 4
  %17 = select i1 %.b39, i32 -2147483648, i32 0
  %18 = tail call ptr @proto_tree_add_item(ptr noundef %2, i32 noundef %16, ptr noundef %0, i32 noundef 2, i32 noundef 2, i32 noundef %17)
  %19 = load i32, ptr @hf_cigi3_hat_hot_extended_response_hat, align 4
  %.b38 = load i1, ptr @cigi_byte_order, align 4
  %20 = select i1 %.b38, i32 -2147483648, i32 0
  %21 = tail call ptr @proto_tree_add_item(ptr noundef %2, i32 noundef %19, ptr noundef %0, i32 noundef 4, i32 noundef 8, i32 noundef %20)
  %22 = load i32, ptr @hf_cigi3_hat_hot_extended_response_hot, align 4
  %.b37 = load i1, ptr @cigi_byte_order, align 4
  %23 = select i1 %.b37, i32 -2147483648, i32 0
  %24 = tail call ptr @proto_tree_add_item(ptr noundef %2, i32 noundef %22, ptr noundef %0, i32 noundef 12, i32 noundef 8, i32 noundef %23)
  %25 = load i32, ptr @hf_cigi3_hat_hot_extended_response_material_code, align 4
  %.b36 = load i1, ptr @cigi_byte_order, align 4
  %26 = select i1 %.b36, i32 -2147483648, i32 0
  %27 = tail call ptr @proto_tree_add_item(ptr noundef %2, i32 noundef %25, ptr noundef %0, i32 noundef 20, i32 noundef 4, i32 noundef %26)
  %28 = load i32, ptr @hf_cigi3_hat_hot_extended_response_normal_vector_azimuth, align 4
  %.b35 = load i1, ptr @cigi_byte_order, align 4
  %29 = select i1 %.b35, i32 -2147483648, i32 0
  %30 = tail call ptr @proto_tree_add_item(ptr noundef %2, i32 noundef %28, ptr noundef %0, i32 noundef 24, i32 noundef 4, i32 noundef %29)
  %31 = load i32, ptr @hf_cigi3_hat_hot_extended_response_normal_vector_elevation, align 4
  %.b = load i1, ptr @cigi_byte_order, align 4
  %32 = select i1 %.b, i32 -2147483648, i32 0
  %33 = tail call ptr @proto_tree_add_item(ptr noundef %2, i32 noundef %31, ptr noundef %0, i32 noundef 28, i32 noundef 4, i32 noundef %32)
  ret i32 36
}